; ModuleID = '17/436.c'
source_filename = "17/436.c"
target datalayout = "e-m:e-p270:32:32-p271:32:32-p272:64:64-i64:64-f80:128-n8:16:32:64-S128"
target triple = "x86_64-pc-linux-gnu"

@.str = private unnamed_addr constant [3 x i8] c"%d\00", align 1
@.str.1 = private unnamed_addr constant [3 x i8] c"%s\00", align 1
@.str.2 = private unnamed_addr constant [4 x i8] c"%s\0A\00", align 1

; Function Attrs: noinline nounwind uwtable
define dso_local i32 @main() #0 {
  %1 = alloca i32, align 4
  %2 = alloca i32, align 4
  %3 = alloca [200 x i8], align 16
  %4 = alloca [200 x i8], align 16
  %5 = alloca [200 x i32], align 16
  %6 = alloca i32, align 4
  %7 = alloca i32, align 4
  %8 = alloca i32, align 4
  %9 = alloca i32, align 4
  store i32 0, i32* %1, align 4
  %10 = call i32 (i8*, ...) @__isoc99_scanf(i8* getelementptr inbounds ([3 x i8], [3 x i8]* @.str, i64 0, i64 0), i32* %2)
  store i32 0, i32* %8, align 4
  br label %11

11:                                               ; preds = %116, %0
  %12 = load i32, i32* %8, align 4
  %13 = load i32, i32* %2, align 4
  %14 = icmp slt i32 %12, %13
  br i1 %14, label %15, label %119

15:                                               ; preds = %11
  %16 = getelementptr inbounds [200 x i8], [200 x i8]* %3, i64 0, i64 0
  %17 = call i32 (i8*, ...) @__isoc99_scanf(i8* getelementptr inbounds ([3 x i8], [3 x i8]* @.str.1, i64 0, i64 0), i8* %16)
  %18 = getelementptr inbounds [200 x i8], [200 x i8]* %3, i64 0, i64 0
  %19 = call i64 @strlen(i8* %18) #3
  %20 = trunc i64 %19 to i32
  store i32 %20, i32* %6, align 4
  store i32 0, i32* %7, align 4
  store i32 0, i32* %9, align 4
  store i32 0, i32* %9, align 4
  br label %21

21:                                               ; preds = %105, %15
  %22 = load i32, i32* %9, align 4
  %23 = load i32, i32* %6, align 4
  %24 = icmp slt i32 %22, %23
  br i1 %24, label %25, label %108

25:                                               ; preds = %21
  %26 = load i32, i32* %9, align 4
  %27 = sext i32 %26 to i64
  %28 = getelementptr inbounds [200 x i8], [200 x i8]* %3, i64 0, i64 %27
  %29 = load i8, i8* %28, align 1
  %30 = sext i8 %29 to i32
  %31 = icmp eq i32 %30, 40
  br i1 %31, label %32, label %42

32:                                               ; preds = %25
  %33 = load i32, i32* %9, align 4
  %34 = sext i32 %33 to i64
  %35 = getelementptr inbounds [200 x i8], [200 x i8]* %4, i64 0, i64 %34
  store i8 36, i8* %35, align 1
  %36 = load i32, i32* %9, align 4
  %37 = load i32, i32* %7, align 4
  %38 = sext i32 %37 to i64
  %39 = getelementptr inbounds [200 x i32], [200 x i32]* %5, i64 0, i64 %38
  store i32 %36, i32* %39, align 4
  %40 = load i32, i32* %7, align 4
  %41 = add nsw i32 %40, 1
  store i32 %41, i32* %7, align 4
  br label %104

42:                                               ; preds = %25
  %43 = load i32, i32* %9, align 4
  %44 = sext i32 %43 to i64
  %45 = getelementptr inbounds [200 x i8], [200 x i8]* %3, i64 0, i64 %44
  %46 = load i8, i8* %45, align 1
  %47 = sext i8 %46 to i32
  %48 = icmp eq i32 %47, 41
  br i1 %48, label %49, label %99

49:                                               ; preds = %42
  %50 = load i32, i32* %9, align 4
  %51 = icmp eq i32 %50, 0
  br i1 %51, label %52, label %56

52:                                               ; preds = %49
  %53 = load i32, i32* %9, align 4
  %54 = sext i32 %53 to i64
  %55 = getelementptr inbounds [200 x i8], [200 x i8]* %4, i64 0, i64 %54
  store i8 63, i8* %55, align 1
  br label %98

56:                                               ; preds = %49
  %57 = load i32, i32* %7, align 4
  %58 = icmp sgt i32 %57, 0
  br i1 %58, label %59, label %87

59:                                               ; preds = %56
  %60 = load i32, i32* %7, align 4
  %61 = sub nsw i32 %60, 1
  %62 = sext i32 %61 to i64
  %63 = getelementptr inbounds [200 x i32], [200 x i32]* %5, i64 0, i64 %62
  %64 = load i32, i32* %63, align 4
  %65 = sext i32 %64 to i64
  %66 = getelementptr inbounds [200 x i8], [200 x i8]* %4, i64 0, i64 %65
  %67 = load i8, i8* %66, align 1
  %68 = sext i8 %67 to i32
  %69 = icmp eq i32 %68, 36
  br i1 %69, label %70, label %87

70:                                               ; preds = %59
  %71 = load i32, i32* %7, align 4
  %72 = sub nsw i32 %71, 1
  %73 = sext i32 %72 to i64
  %74 = getelementptr inbounds [200 x i32], [200 x i32]* %5, i64 0, i64 %73
  %75 = load i32, i32* %74, align 4
  %76 = sext i32 %75 to i64
  %77 = getelementptr inbounds [200 x i8], [200 x i8]* %4, i64 0, i64 %76
  store i8 32, i8* %77, align 1
  %78 = load i32, i32* %9, align 4
  %79 = sub nsw i32 %78, 1
  %80 = sext i32 %79 to i64
  %81 = getelementptr inbounds [200 x i8], [200 x i8]* %4, i64 0, i64 %80
  store i8 32, i8* %81, align 1
  %82 = load i32, i32* %9, align 4
  %83 = sext i32 %82 to i64
  %84 = getelementptr inbounds [200 x i8], [200 x i8]* %4, i64 0, i64 %83
  store i8 32, i8* %84, align 1
  %85 = load i32, i32* %7, align 4
  %86 = sub nsw i32 %85, 1
  store i32 %86, i32* %7, align 4
  br label %97

87:                                               ; preds = %59, %56
  %88 = load i32, i32* %9, align 4
  %89 = sext i32 %88 to i64
  %90 = getelementptr inbounds [200 x i8], [200 x i8]* %4, i64 0, i64 %89
  store i8 63, i8* %90, align 1
  %91 = load i32, i32* %9, align 4
  %92 = load i32, i32* %7, align 4
  %93 = sext i32 %92 to i64
  %94 = getelementptr inbounds [200 x i32], [200 x i32]* %5, i64 0, i64 %93
  store i32 %91, i32* %94, align 4
  %95 = load i32, i32* %7, align 4
  %96 = add nsw i32 %95, 1
  store i32 %96, i32* %7, align 4
  br label %97

97:                                               ; preds = %87, %70
  br label %98

98:                                               ; preds = %97, %52
  br label %103

99:                                               ; preds = %42
  %100 = load i32, i32* %9, align 4
  %101 = sext i32 %100 to i64
  %102 = getelementptr inbounds [200 x i8], [200 x i8]* %4, i64 0, i64 %101
  store i8 32, i8* %102, align 1
  br label %103

103:                                              ; preds = %99, %98
  br label %104

104:                                              ; preds = %103, %32
  br label %105

105:                                              ; preds = %104
  %106 = load i32, i32* %9, align 4
  %107 = add nsw i32 %106, 1
  store i32 %107, i32* %9, align 4
  br label %21

108:                                              ; preds = %21
  %109 = load i32, i32* %9, align 4
  %110 = sext i32 %109 to i64
  %111 = getelementptr inbounds [200 x i8], [200 x i8]* %4, i64 0, i64 %110
  store i8 0, i8* %111, align 1
  %112 = getelementptr inbounds [200 x i8], [200 x i8]* %3, i64 0, i64 0
  %113 = call i32 (i8*, ...) @printf(i8* getelementptr inbounds ([4 x i8], [4 x i8]* @.str.2, i64 0, i64 0), i8* %112)
  %114 = getelementptr inbounds [200 x i8], [200 x i8]* %4, i64 0, i64 0
  %115 = call i32 (i8*, ...) @printf(i8* getelementptr inbounds ([4 x i8], [4 x i8]* @.str.2, i64 0, i64 0), i8* %114)
  br label %116

116:                                              ; preds = %108
  %117 = load i32, i32* %8, align 4
  %118 = add nsw i32 %117, 1
  store i32 %118, i32* %8, align 4
  br label %11

119:                                              ; preds = %11
  ret i32 0
}

declare dso_local i32 @__isoc99_scanf(i8*, ...) #1

; Function Attrs: nounwind readonly
declare dso_local i64 @strlen(i8*) #2

declare dso_local i32 @printf(i8*, ...) #1


!llvm.module.flags = !{!0}
!llvm.ident = !{!1}

!0 = !{i32 1, !"wchar_size", i32 4}
!1 = !{!"clang version 10.0.0-4ubuntu1 "}
